ccopy_reg
_reconstructor
p0
(cnetworkx.classes.graph
Graph
p1
c__builtin__
object
p2
Ntp3
Rp4
(dp5
S'node'
p6
(dp7
I0
(dp8
S'height'
p9
I0
sS'total_volume'
p10
I21
ssI1
(dp11
g9
I1
sg10
I19
ssI2
(dp12
g9
I2
sg10
I8
ssI3
(dp13
g9
I3
sg10
I0
ssI4
(dp14
g9
I4
sg10
I0
ssI5
(dp15
g9
I5
sg10
I0
sssS'graph'
p16
(dp17
sS'edge'
p18
(dp19
I0
(dp20
I1
(dp21
S'volume'
p22
I2
sg10
I21
sssI1
(dp23
I0
g21
sI2
(dp24
g22
I4
sg10
I12
ssI5
(dp25
g22
I7
sg10
I7
sssI2
(dp26
I1
g24
sI3
(dp27
g22
I2
sg10
I2
ssI4
(dp28
g22
I6
sg10
I6
sssI3
(dp29
I2
g27
ssI4
(dp30
I2
g28
ssI5
(dp31
I1
g25
sssS'adj'
p32
g19
sb.